target datalayout = "e-m:e-p270:32:32-p271:32:32-p272:64:64-i64:64-i128:128-f80:128-n8:16:32:64-S128"
target triple = "x86_64-pc-linux-gnu"

%struct.stat = type { i64, i64, i64, i32, i32, i32, i32, i64, i64, i64, i64, %struct.timespec, %struct.timespec, %struct.timespec, [3 x i64] }
%struct.timespec = type { i64, i64 }

@verbose = internal global i32 0, align 4
@report_garbage = external global ptr, align 8
@the_repository = external global ptr, align 8
@loose_size = internal global i64 0, align 8
@loose = internal global i64 0, align 8
@packed_loose = internal global i64 0, align 8

; Function Attrs: nounwind uwtable
define internal void @loose_garbage(ptr noundef %0) #0 {
  %2 = alloca ptr, align 8
  store ptr %0, ptr %2, align 8, !tbaa !11
  %3 = load i32, ptr @verbose, align 4, !tbaa !4
  %4 = icmp ne i32 %3, 0
  br i1 %4, label %5, label %8

5:                                                ; preds = %1
  %6 = load ptr, ptr @report_garbage, align 8, !tbaa !29
  %7 = load ptr, ptr %2, align 8, !tbaa !11
  call void %6(i32 noundef 4, ptr noundef %7)
  br label %8

8:                                                ; preds = %5, %1
  ret void
}

; Function Attrs: nounwind uwtable
define internal i32 @count_loose(ptr noundef %0, ptr noundef %1, ptr noundef %2) #0 {
  %4 = alloca ptr, align 8
  %5 = alloca ptr, align 8
  %6 = alloca ptr, align 8
  %7 = alloca %struct.stat, align 8
  store ptr %0, ptr %4, align 8, !tbaa !40
  store ptr %1, ptr %5, align 8, !tbaa !11
  store ptr %2, ptr %6, align 8, !tbaa !29
  call void @llvm.lifetime.start.p0(i64 144, ptr %7) #8
  %8 = load ptr, ptr %5, align 8, !tbaa !11
  %9 = call i32 @lstat64(ptr noundef %8, ptr noundef %7) #8
  %10 = icmp ne i32 %9, 0
  br i1 %10, label %16, label %11

11:                                               ; preds = %3
  %12 = getelementptr inbounds nuw %struct.stat, ptr %7, i32 0, i32 3
  %13 = load i32, ptr %12, align 8, !tbaa !42
  %14 = and i32 %13, 61440
  %15 = icmp eq i32 %14, 32768
  br i1 %15, label %18, label %16

16:                                               ; preds = %11, %3
  %17 = load ptr, ptr %5, align 8, !tbaa !11
  call void @loose_garbage(ptr noundef %17)
  br label %37

18:                                               ; preds = %11
  %19 = getelementptr inbounds nuw %struct.stat, ptr %7, i32 0, i32 10
  %20 = load i64, ptr %19, align 8, !tbaa !43
  %21 = mul nsw i64 %20, 512
  %22 = load i64, ptr @loose_size, align 8, !tbaa !30
  %23 = add nsw i64 %22, %21
  store i64 %23, ptr @loose_size, align 8, !tbaa !30
  %24 = load i64, ptr @loose, align 8, !tbaa !30
  %25 = add i64 %24, 1
  store i64 %25, ptr @loose, align 8, !tbaa !30
  %26 = load i32, ptr @verbose, align 4, !tbaa !4
  %27 = icmp ne i32 %26, 0
  br i1 %27, label %28, label %36

28:                                               ; preds = %18
  %29 = load ptr, ptr @the_repository, align 8, !tbaa !13
  %30 = load ptr, ptr %4, align 8, !tbaa !40
  %31 = call i32 @has_object_pack(ptr noundef %29, ptr noundef %30)
  %32 = icmp ne i32 %31, 0
  br i1 %32, label %33, label %36

33:                                               ; preds = %28
  %34 = load i64, ptr @packed_loose, align 8, !tbaa !30
  %35 = add i64 %34, 1
  store i64 %35, ptr @packed_loose, align 8, !tbaa !30
  br label %36

36:                                               ; preds = %33, %28, %18
  br label %37

37:                                               ; preds = %36, %16
  call void @llvm.lifetime.end.p0(i64 144, ptr %7) #8
  ret i32 0
}