; Function Attrs: nounwind uwtable
define internal noundef i32 @count_loose(ptr noundef %0, ptr noundef %1, ptr readnone captures(none) %2) #0 {
  %4 = alloca %struct.stat, align 8
  call void @llvm.lifetime.start.p0(i64 144, ptr nonnull %4) #7
  %5 = call i32 @lstat64(ptr noundef %1, ptr noundef nonnull %4) #7
  %.not = icmp eq i32 %5, 0
  br i1 %.not, label %6, label %11

6:                                                ; preds = %3
  %7 = getelementptr inbounds nuw i8, ptr %4, i64 24
  %8 = load i32, ptr %7, align 8, !tbaa !34
  %9 = and i32 %8, 61440
  %10 = icmp eq i32 %9, 32768
  br i1 %10, label %15, label %11

11:                                               ; preds = %6, %3
  %12 = load i32, ptr @verbose, align 4, !tbaa !4
  %.not.i = icmp eq i32 %12, 0
  br i1 %.not.i, label %loose_garbage.exit, label %13

13:                                               ; preds = %11
  %14 = load ptr, ptr @report_garbage, align 8, !tbaa !23
  tail call void %14(i32 noundef 4, ptr noundef %1) #7
  br label %loose_garbage.exit

15:                                               ; preds = %6
  %16 = getelementptr inbounds nuw i8, ptr %4, i64 64
  %17 = load i64, ptr %16, align 8, !tbaa !35
  %18 = shl nsw i64 %17, 9
  %19 = load i64, ptr @loose_size, align 8, !tbaa !24
  %20 = add nsw i64 %19, %18
  store i64 %20, ptr @loose_size, align 8, !tbaa !24
  %21 = load i64, ptr @loose, align 8, !tbaa !24
  %22 = add i64 %21, 1
  store i64 %22, ptr @loose, align 8, !tbaa !24
  %23 = load i32, ptr @verbose, align 4, !tbaa !4
  %.not3 = icmp eq i32 %23, 0
  br i1 %.not3, label %loose_garbage.exit, label %24

24:                                               ; preds = %15
  %25 = load ptr, ptr @the_repository, align 8, !tbaa !21
  %26 = tail call i32 @has_object_pack(ptr noundef %25, ptr noundef %0) #7
  %.not4 = icmp eq i32 %26, 0
  br i1 %.not4, label %loose_garbage.exit, label %27

27:                                               ; preds = %24
  %28 = load i64, ptr @packed_loose, align 8, !tbaa !24
  %29 = add i64 %28, 1
  store i64 %29, ptr @packed_loose, align 8, !tbaa !24
  br label %loose_garbage.exit

loose_garbage.exit:                               ; preds = %13, %11, %15, %24, %27
  call void @llvm.lifetime.end.p0(i64 144, ptr nonnull %4) #7
  ret i32 0
}